
PongGame.elf:     file format elf32-avr

Sections:
Idx Name          Size      VMA       LMA       File off  Algn
  0 .data         0000000e  00800100  000001a6  0000023a  2**0
                  CONTENTS, ALLOC, LOAD, DATA
  1 .text         000001a6  00000000  00000000  00000094  2**1
                  CONTENTS, ALLOC, LOAD, READONLY, CODE
  2 .bss          00000006  0080010e  0080010e  00000248  2**0
                  ALLOC
  3 .comment      00000030  00000000  00000000  00000248  2**0
                  CONTENTS, READONLY
  4 .note.gnu.avr.deviceinfo 0000003c  00000000  00000000  00000278  2**2
                  CONTENTS, READONLY
  5 .debug_aranges 00000080  00000000  00000000  000002b4  2**0
                  CONTENTS, READONLY, DEBUGGING
  6 .debug_info   00000c79  00000000  00000000  00000334  2**0
                  CONTENTS, READONLY, DEBUGGING
  7 .debug_abbrev 000009bd  00000000  00000000  00000fad  2**0
                  CONTENTS, READONLY, DEBUGGING
  8 .debug_line   000004f4  00000000  00000000  0000196a  2**0
                  CONTENTS, READONLY, DEBUGGING
  9 .debug_frame  000000b4  00000000  00000000  00001e60  2**2
                  CONTENTS, READONLY, DEBUGGING
 10 .debug_str    0000042c  00000000  00000000  00001f14  2**0
                  CONTENTS, READONLY, DEBUGGING
 11 .debug_loc    000000f2  00000000  00000000  00002340  2**0
                  CONTENTS, READONLY, DEBUGGING
 12 .debug_ranges 00000050  00000000  00000000  00002432  2**0
                  CONTENTS, READONLY, DEBUGGING

Disassembly of section .text:

00000000 <__vectors>:
   0:	0c 94 38 00 	jmp	0x70	; 0x70 <__ctors_end>
   4:	0c 94 55 00 	jmp	0xaa	; 0xaa <__bad_interrupt>
   8:	0c 94 55 00 	jmp	0xaa	; 0xaa <__bad_interrupt>
   c:	0c 94 55 00 	jmp	0xaa	; 0xaa <__bad_interrupt>
  10:	0c 94 55 00 	jmp	0xaa	; 0xaa <__bad_interrupt>
  14:	0c 94 55 00 	jmp	0xaa	; 0xaa <__bad_interrupt>
  18:	0c 94 55 00 	jmp	0xaa	; 0xaa <__bad_interrupt>
  1c:	0c 94 55 00 	jmp	0xaa	; 0xaa <__bad_interrupt>
  20:	0c 94 55 00 	jmp	0xaa	; 0xaa <__bad_interrupt>
  24:	0c 94 55 00 	jmp	0xaa	; 0xaa <__bad_interrupt>
  28:	0c 94 55 00 	jmp	0xaa	; 0xaa <__bad_interrupt>
  2c:	0c 94 55 00 	jmp	0xaa	; 0xaa <__bad_interrupt>
  30:	0c 94 55 00 	jmp	0xaa	; 0xaa <__bad_interrupt>
  34:	0c 94 55 00 	jmp	0xaa	; 0xaa <__bad_interrupt>
  38:	0c 94 55 00 	jmp	0xaa	; 0xaa <__bad_interrupt>
  3c:	0c 94 55 00 	jmp	0xaa	; 0xaa <__bad_interrupt>
  40:	0c 94 55 00 	jmp	0xaa	; 0xaa <__bad_interrupt>
  44:	0c 94 55 00 	jmp	0xaa	; 0xaa <__bad_interrupt>
  48:	0c 94 55 00 	jmp	0xaa	; 0xaa <__bad_interrupt>
  4c:	0c 94 55 00 	jmp	0xaa	; 0xaa <__bad_interrupt>
  50:	0c 94 55 00 	jmp	0xaa	; 0xaa <__bad_interrupt>
  54:	0c 94 55 00 	jmp	0xaa	; 0xaa <__bad_interrupt>
  58:	0c 94 55 00 	jmp	0xaa	; 0xaa <__bad_interrupt>
  5c:	0c 94 55 00 	jmp	0xaa	; 0xaa <__bad_interrupt>
  60:	0c 94 55 00 	jmp	0xaa	; 0xaa <__bad_interrupt>
  64:	0c 94 55 00 	jmp	0xaa	; 0xaa <__bad_interrupt>
  68:	0c 94 55 00 	jmp	0xaa	; 0xaa <__bad_interrupt>
  6c:	0c 94 55 00 	jmp	0xaa	; 0xaa <__bad_interrupt>

00000070 <__ctors_end>:
  70:	11 24       	eor	r1, r1
  72:	1f be       	out	0x3f, r1	; 63
  74:	cf ef       	ldi	r28, 0xFF	; 255
  76:	d4 e0       	ldi	r29, 0x04	; 4
  78:	de bf       	out	0x3e, r29	; 62
  7a:	cd bf       	out	0x3d, r28	; 61

0000007c <__do_copy_data>:
  7c:	11 e0       	ldi	r17, 0x01	; 1
  7e:	a0 e0       	ldi	r26, 0x00	; 0
  80:	b1 e0       	ldi	r27, 0x01	; 1
  82:	e6 ea       	ldi	r30, 0xA6	; 166
  84:	f1 e0       	ldi	r31, 0x01	; 1
  86:	02 c0       	rjmp	.+4      	; 0x8c <__do_copy_data+0x10>
  88:	05 90       	lpm	r0, Z+
  8a:	0d 92       	st	X+, r0
  8c:	ae 30       	cpi	r26, 0x0E	; 14
  8e:	b1 07       	cpc	r27, r17
  90:	d9 f7       	brne	.-10     	; 0x88 <__do_copy_data+0xc>

00000092 <__do_clear_bss>:
  92:	21 e0       	ldi	r18, 0x01	; 1
  94:	ae e0       	ldi	r26, 0x0E	; 14
  96:	b1 e0       	ldi	r27, 0x01	; 1
  98:	01 c0       	rjmp	.+2      	; 0x9c <.do_clear_bss_start>

0000009a <.do_clear_bss_loop>:
  9a:	1d 92       	st	X+, r1

0000009c <.do_clear_bss_start>:
  9c:	a4 31       	cpi	r26, 0x14	; 20
  9e:	b2 07       	cpc	r27, r18
  a0:	e1 f7       	brne	.-8      	; 0x9a <.do_clear_bss_loop>
  a2:	0e 94 70 00 	call	0xe0	; 0xe0 <main>
  a6:	0c 94 d1 00 	jmp	0x1a2	; 0x1a2 <_exit>

000000aa <__bad_interrupt>:
  aa:	0c 94 00 00 	jmp	0	; 0x0 <__vectors>

000000ae <uart_putchar>:
}

void USART_TX(unsigned char data){
	while ( !( UCSR0A & (1 << UDRE0)) );
		
	UDR0 = data;
  ae:	cf 93       	push	r28
  b0:	c8 2f       	mov	r28, r24
  b2:	8a 30       	cpi	r24, 0x0A	; 10
  b4:	19 f4       	brne	.+6      	; 0xbc <uart_putchar+0xe>
  b6:	8d e0       	ldi	r24, 0x0D	; 13
  b8:	0e 94 57 00 	call	0xae	; 0xae <uart_putchar>
  bc:	5d 9b       	sbis	0x0b, 5	; 11
  be:	fe cf       	rjmp	.-4      	; 0xbc <uart_putchar+0xe>
  c0:	cc b9       	out	0x0c, r28	; 12
  c2:	80 e0       	ldi	r24, 0x00	; 0
  c4:	90 e0       	ldi	r25, 0x00	; 0
  c6:	cf 91       	pop	r28
  c8:	08 95       	ret

000000ca <USART_Init>:
  ca:	90 bd       	out	0x20, r25	; 32
  cc:	89 b9       	out	0x09, r24	; 9
  ce:	88 e1       	ldi	r24, 0x18	; 24
  d0:	8a b9       	out	0x0a, r24	; 10
  d2:	8e e8       	ldi	r24, 0x8E	; 142
  d4:	80 bd       	out	0x20, r24	; 32
  d6:	08 95       	ret

000000d8 <USART_RX>:
}

unsigned char USART_RX(){
	while ( !( UCSR0A & (1 << RXC0) ));
  d8:	5f 9b       	sbis	0x0b, 7	; 11
  da:	fe cf       	rjmp	.-4      	; 0xd8 <USART_RX>
	
	return UDR0;	
  dc:	8c b1       	in	r24, 0x0c	; 12
}
  de:	08 95       	ret

000000e0 <main>:


int main(void)
{
	
	uart_test();
  e0:	0e 94 75 00 	call	0xea	; 0xea <uart_test>
}
  e4:	80 e0       	ldi	r24, 0x00	; 0
  e6:	90 e0       	ldi	r25, 0x00	; 0
  e8:	08 95       	ret

000000ea <uart_test>:


void uart_test()
{
	unsigned char test;
	USART_Init(UBRR);
  ea:	8f e1       	ldi	r24, 0x1F	; 31
  ec:	90 e0       	ldi	r25, 0x00	; 0
  ee:	0e 94 65 00 	call	0xca	; 0xca <USART_Init>
	stdout = &mystdout;	
  f2:	80 e0       	ldi	r24, 0x00	; 0
  f4:	91 e0       	ldi	r25, 0x01	; 1
  f6:	90 93 11 01 	sts	0x0111, r25	; 0x800111 <__data_end+0x3>
  fa:	80 93 10 01 	sts	0x0110, r24	; 0x800110 <__data_end+0x2>

	while(1)
	{
		test = USART_RX();
  fe:	0e 94 6c 00 	call	0xd8	; 0xd8 <USART_RX>
		printf("%c", test);
 102:	90 e0       	ldi	r25, 0x00	; 0
 104:	0e 94 8e 00 	call	0x11c	; 0x11c <putchar>
	#else
		//round up by default
		__ticks_dc = (uint32_t)(ceil(fabs(__tmp)));
	#endif

	__builtin_avr_delay_cycles(__ticks_dc);
 108:	2f ef       	ldi	r18, 0xFF	; 255
 10a:	8f e7       	ldi	r24, 0x7F	; 127
 10c:	97 e0       	ldi	r25, 0x07	; 7
 10e:	21 50       	subi	r18, 0x01	; 1
 110:	80 40       	sbci	r24, 0x00	; 0
 112:	90 40       	sbci	r25, 0x00	; 0
 114:	e1 f7       	brne	.-8      	; 0x10e <uart_test+0x24>
 116:	00 c0       	rjmp	.+0      	; 0x118 <uart_test+0x2e>
 118:	00 00       	nop
 11a:	f1 cf       	rjmp	.-30     	; 0xfe <uart_test+0x14>

0000011c <putchar>:
 11c:	60 91 10 01 	lds	r22, 0x0110	; 0x800110 <__data_end+0x2>
 120:	70 91 11 01 	lds	r23, 0x0111	; 0x800111 <__data_end+0x3>
 124:	0e 94 95 00 	call	0x12a	; 0x12a <fputc>
 128:	08 95       	ret

0000012a <fputc>:
 12a:	0f 93       	push	r16
 12c:	1f 93       	push	r17
 12e:	cf 93       	push	r28
 130:	df 93       	push	r29
 132:	fb 01       	movw	r30, r22
 134:	23 81       	ldd	r18, Z+3	; 0x03
 136:	21 fd       	sbrc	r18, 1
 138:	03 c0       	rjmp	.+6      	; 0x140 <fputc+0x16>
 13a:	8f ef       	ldi	r24, 0xFF	; 255
 13c:	9f ef       	ldi	r25, 0xFF	; 255
 13e:	2c c0       	rjmp	.+88     	; 0x198 <fputc+0x6e>
 140:	22 ff       	sbrs	r18, 2
 142:	16 c0       	rjmp	.+44     	; 0x170 <fputc+0x46>
 144:	46 81       	ldd	r20, Z+6	; 0x06
 146:	57 81       	ldd	r21, Z+7	; 0x07
 148:	24 81       	ldd	r18, Z+4	; 0x04
 14a:	35 81       	ldd	r19, Z+5	; 0x05
 14c:	42 17       	cp	r20, r18
 14e:	53 07       	cpc	r21, r19
 150:	44 f4       	brge	.+16     	; 0x162 <fputc+0x38>
 152:	a0 81       	ld	r26, Z
 154:	b1 81       	ldd	r27, Z+1	; 0x01
 156:	9d 01       	movw	r18, r26
 158:	2f 5f       	subi	r18, 0xFF	; 255
 15a:	3f 4f       	sbci	r19, 0xFF	; 255
 15c:	31 83       	std	Z+1, r19	; 0x01
 15e:	20 83       	st	Z, r18
 160:	8c 93       	st	X, r24
 162:	26 81       	ldd	r18, Z+6	; 0x06
 164:	37 81       	ldd	r19, Z+7	; 0x07
 166:	2f 5f       	subi	r18, 0xFF	; 255
 168:	3f 4f       	sbci	r19, 0xFF	; 255
 16a:	37 83       	std	Z+7, r19	; 0x07
 16c:	26 83       	std	Z+6, r18	; 0x06
 16e:	14 c0       	rjmp	.+40     	; 0x198 <fputc+0x6e>
 170:	8b 01       	movw	r16, r22
 172:	ec 01       	movw	r28, r24
 174:	fb 01       	movw	r30, r22
 176:	00 84       	ldd	r0, Z+8	; 0x08
 178:	f1 85       	ldd	r31, Z+9	; 0x09
 17a:	e0 2d       	mov	r30, r0
 17c:	09 95       	icall
 17e:	89 2b       	or	r24, r25
 180:	e1 f6       	brne	.-72     	; 0x13a <fputc+0x10>
 182:	d8 01       	movw	r26, r16
 184:	16 96       	adiw	r26, 0x06	; 6
 186:	8d 91       	ld	r24, X+
 188:	9c 91       	ld	r25, X
 18a:	17 97       	sbiw	r26, 0x07	; 7
 18c:	01 96       	adiw	r24, 0x01	; 1
 18e:	17 96       	adiw	r26, 0x07	; 7
 190:	9c 93       	st	X, r25
 192:	8e 93       	st	-X, r24
 194:	16 97       	sbiw	r26, 0x06	; 6
 196:	ce 01       	movw	r24, r28
 198:	df 91       	pop	r29
 19a:	cf 91       	pop	r28
 19c:	1f 91       	pop	r17
 19e:	0f 91       	pop	r16
 1a0:	08 95       	ret

000001a2 <_exit>:
 1a2:	f8 94       	cli

000001a4 <__stop_program>:
 1a4:	ff cf       	rjmp	.-2      	; 0x1a4 <__stop_program>
