
ArduinoNode.elf:     file format elf32-littlearm

Sections:
Idx Name          Size      VMA       LMA       File off  Algn
  0 .text         000008f0  00080000  00080000  00010000  2**2
                  CONTENTS, ALLOC, LOAD, READONLY, CODE
  1 .relocate     00000434  20000000  000808f0  00020000  2**3
                  CONTENTS, ALLOC, LOAD, DATA
  2 .bss          00000084  20000434  00080d24  00020434  2**2
                  ALLOC
  3 .stack        00000400  200004b8  00080da8  00020434  2**0
                  ALLOC
  4 .heap         00000200  200008b8  000811a8  00020434  2**0
                  ALLOC
  5 .ARM.attributes 00000029  00000000  00000000  00020434  2**0
                  CONTENTS, READONLY
  6 .comment      00000059  00000000  00000000  0002045d  2**0
                  CONTENTS, READONLY
  7 .debug_info   00003fa7  00000000  00000000  000204b6  2**0
                  CONTENTS, READONLY, DEBUGGING
  8 .debug_abbrev 00000be7  00000000  00000000  0002445d  2**0
                  CONTENTS, READONLY, DEBUGGING
  9 .debug_loc    00000d6c  00000000  00000000  00025044  2**0
                  CONTENTS, READONLY, DEBUGGING
 10 .debug_aranges 00000168  00000000  00000000  00025db0  2**0
                  CONTENTS, READONLY, DEBUGGING
 11 .debug_ranges 00000128  00000000  00000000  00025f18  2**0
                  CONTENTS, READONLY, DEBUGGING
 12 .debug_macro  00011d1b  00000000  00000000  00026040  2**0
                  CONTENTS, READONLY, DEBUGGING
 13 .debug_line   0000315c  00000000  00000000  00037d5b  2**0
                  CONTENTS, READONLY, DEBUGGING
 14 .debug_str    00054f39  00000000  00000000  0003aeb7  2**0
                  CONTENTS, READONLY, DEBUGGING
 15 .debug_frame  000004ac  00000000  00000000  0008fdf0  2**2
                  CONTENTS, READONLY, DEBUGGING

Disassembly of section .text:

00080000 <exception_table>:
   80000:	b8 08 00 20 59 02 08 00 55 02 08 00 55 02 08 00     ... Y...U...U...
   80010:	55 02 08 00 55 02 08 00 55 02 08 00 00 00 00 00     U...U...U.......
	...
   8002c:	55 02 08 00 55 02 08 00 00 00 00 00 55 02 08 00     U...U.......U...
   8003c:	55 02 08 00 55 02 08 00 55 02 08 00 55 02 08 00     U...U...U...U...
   8004c:	55 02 08 00 55 02 08 00 55 02 08 00 55 02 08 00     U...U...U...U...
   8005c:	55 02 08 00 9d 06 08 00 55 02 08 00 00 00 00 00     U.......U.......
   8006c:	55 02 08 00 55 02 08 00 55 02 08 00 55 02 08 00     U...U...U...U...
	...
   80084:	55 02 08 00 55 02 08 00 55 02 08 00 55 02 08 00     U...U...U...U...
   80094:	55 02 08 00 55 02 08 00 55 02 08 00 55 02 08 00     U...U...U...U...
   800a4:	00 00 00 00 55 02 08 00 55 02 08 00 55 02 08 00     ....U...U...U...
   800b4:	55 02 08 00 55 02 08 00 55 02 08 00 55 02 08 00     U...U...U...U...
   800c4:	55 02 08 00 55 02 08 00 55 02 08 00 55 02 08 00     U...U...U...U...
   800d4:	55 02 08 00 55 02 08 00 55 02 08 00 55 02 08 00     U...U...U...U...
   800e4:	55 02 08 00 55 02 08 00 e5 01 08 00 55 02 08 00     U...U.......U...

000800f4 <__do_global_dtors_aux>:
   800f4:	b510      	push	{r4, lr}
   800f6:	4c05      	ldr	r4, [pc, #20]	; (8010c <__do_global_dtors_aux+0x18>)
   800f8:	7823      	ldrb	r3, [r4, #0]
   800fa:	b933      	cbnz	r3, 8010a <__do_global_dtors_aux+0x16>
   800fc:	4b04      	ldr	r3, [pc, #16]	; (80110 <__do_global_dtors_aux+0x1c>)
   800fe:	b113      	cbz	r3, 80106 <__do_global_dtors_aux+0x12>
   80100:	4804      	ldr	r0, [pc, #16]	; (80114 <__do_global_dtors_aux+0x20>)
   80102:	f3af 8000 	nop.w
   80106:	2301      	movs	r3, #1
   80108:	7023      	strb	r3, [r4, #0]
   8010a:	bd10      	pop	{r4, pc}
   8010c:	20000434 	.word	0x20000434
   80110:	00000000 	.word	0x00000000
   80114:	000808f0 	.word	0x000808f0

00080118 <frame_dummy>:
   80118:	4b0c      	ldr	r3, [pc, #48]	; (8014c <frame_dummy+0x34>)
   8011a:	b143      	cbz	r3, 8012e <frame_dummy+0x16>
   8011c:	480c      	ldr	r0, [pc, #48]	; (80150 <frame_dummy+0x38>)
   8011e:	b510      	push	{r4, lr}
   80120:	490c      	ldr	r1, [pc, #48]	; (80154 <frame_dummy+0x3c>)
   80122:	f3af 8000 	nop.w
   80126:	480c      	ldr	r0, [pc, #48]	; (80158 <frame_dummy+0x40>)
   80128:	6803      	ldr	r3, [r0, #0]
   8012a:	b923      	cbnz	r3, 80136 <frame_dummy+0x1e>
   8012c:	bd10      	pop	{r4, pc}
   8012e:	480a      	ldr	r0, [pc, #40]	; (80158 <frame_dummy+0x40>)
   80130:	6803      	ldr	r3, [r0, #0]
   80132:	b933      	cbnz	r3, 80142 <frame_dummy+0x2a>
   80134:	4770      	bx	lr
   80136:	4b09      	ldr	r3, [pc, #36]	; (8015c <frame_dummy+0x44>)
   80138:	2b00      	cmp	r3, #0
   8013a:	d0f7      	beq.n	8012c <frame_dummy+0x14>
   8013c:	e8bd 4010 	ldmia.w	sp!, {r4, lr}
   80140:	4718      	bx	r3
   80142:	4b06      	ldr	r3, [pc, #24]	; (8015c <frame_dummy+0x44>)
   80144:	2b00      	cmp	r3, #0
   80146:	d0f5      	beq.n	80134 <frame_dummy+0x1c>
   80148:	4718      	bx	r3
   8014a:	bf00      	nop
   8014c:	00000000 	.word	0x00000000
   80150:	000808f0 	.word	0x000808f0
   80154:	20000438 	.word	0x20000438
   80158:	000808f0 	.word	0x000808f0
   8015c:	00000000 	.word	0x00000000

00080160 <can_receive>:
 * \retval Success(0) or failure(1)
 */
uint8_t can_receive(CAN_MESSAGE* can_msg, uint8_t rx_mb_id)
{
	//Check that mailbox is ready
	if(CAN0->CAN_MB[rx_mb_id].CAN_MSR & CAN_MSR_MRDY)
   80160:	014b      	lsls	r3, r1, #5
   80162:	f103 2340 	add.w	r3, r3, #1073758208	; 0x40004000
   80166:	f503 2330 	add.w	r3, r3, #720896	; 0xb0000
   8016a:	f8d3 3210 	ldr.w	r3, [r3, #528]	; 0x210
   8016e:	f413 0f00 	tst.w	r3, #8388608	; 0x800000
   80172:	d033      	beq.n	801dc <can_receive+0x7c>
{
   80174:	b470      	push	{r4, r5, r6}
	{
		//Get data from CAN mailbox
		uint32_t data_low = CAN0->CAN_MB[rx_mb_id].CAN_MDL;
   80176:	014b      	lsls	r3, r1, #5
   80178:	f103 2340 	add.w	r3, r3, #1073758208	; 0x40004000
   8017c:	f503 2330 	add.w	r3, r3, #720896	; 0xb0000
   80180:	f8d3 4214 	ldr.w	r4, [r3, #532]	; 0x214
		uint32_t data_high = CAN0->CAN_MB[rx_mb_id].CAN_MDH;
   80184:	f8d3 2218 	ldr.w	r2, [r3, #536]	; 0x218
		
		//Get message ID
		can_msg->id = (uint16_t)((CAN0->CAN_MB[rx_mb_id].CAN_MID & CAN_MID_MIDvA_Msk) >> CAN_MID_MIDvA_Pos);
   80188:	f8d3 5208 	ldr.w	r5, [r3, #520]	; 0x208
   8018c:	f3c5 458a 	ubfx	r5, r5, #18, #11
   80190:	8005      	strh	r5, [r0, #0]
		
		//Get data length
		can_msg->data_length = (uint8_t)((CAN0->CAN_MB[rx_mb_id].CAN_MSR & CAN_MSR_MDLC_Msk) >> CAN_MSR_MDLC_Pos);
   80192:	f8d3 5210 	ldr.w	r5, [r3, #528]	; 0x210
   80196:	f3c5 4503 	ubfx	r5, r5, #16, #4
   8019a:	7085      	strb	r5, [r0, #2]
		
		//Put data in CAN_MESSAGE object
		for(int i = 0; i < can_msg->data_length;i++)
   8019c:	2300      	movs	r3, #0
   8019e:	e003      	b.n	801a8 <can_receive+0x48>
				can_msg->data[i] = (char)(data_low & 0xff);
				data_low = data_low >> 8;
			}
			else
			{
				can_msg->data[i] = (uint8_t)(data_high & 0xff);
   801a0:	18c6      	adds	r6, r0, r3
   801a2:	70f2      	strb	r2, [r6, #3]
				data_high = data_high >> 8;
   801a4:	0a12      	lsrs	r2, r2, #8
		for(int i = 0; i < can_msg->data_length;i++)
   801a6:	3301      	adds	r3, #1
   801a8:	42ab      	cmp	r3, r5
   801aa:	da05      	bge.n	801b8 <can_receive+0x58>
			if(i < 4)
   801ac:	2b03      	cmp	r3, #3
   801ae:	dcf7      	bgt.n	801a0 <can_receive+0x40>
				can_msg->data[i] = (char)(data_low & 0xff);
   801b0:	18c6      	adds	r6, r0, r3
   801b2:	70f4      	strb	r4, [r6, #3]
				data_low = data_low >> 8;
   801b4:	0a24      	lsrs	r4, r4, #8
   801b6:	e7f6      	b.n	801a6 <can_receive+0x46>
			}
		}
		
		//Reset for new receive
		CAN0->CAN_MB[rx_mb_id].CAN_MMR = CAN_MMR_MOT_MB_RX;
   801b8:	4b09      	ldr	r3, [pc, #36]	; (801e0 <can_receive+0x80>)
   801ba:	f101 0210 	add.w	r2, r1, #16
   801be:	0152      	lsls	r2, r2, #5
   801c0:	f04f 7080 	mov.w	r0, #16777216	; 0x1000000
   801c4:	5098      	str	r0, [r3, r2]
		CAN0->CAN_MB[rx_mb_id].CAN_MCR |= CAN_MCR_MTCR;
   801c6:	eb03 1141 	add.w	r1, r3, r1, lsl #5
   801ca:	f8d1 321c 	ldr.w	r3, [r1, #540]	; 0x21c
   801ce:	f443 0300 	orr.w	r3, r3, #8388608	; 0x800000
   801d2:	f8c1 321c 	str.w	r3, [r1, #540]	; 0x21c
		return 0;
   801d6:	2000      	movs	r0, #0
	}
	else //Mailbox busy
	{
		return 1;
	}
}
   801d8:	bc70      	pop	{r4, r5, r6}
   801da:	4770      	bx	lr
		return 1;
   801dc:	2001      	movs	r0, #1
   801de:	4770      	bx	lr
   801e0:	400b4000 	.word	0x400b4000

000801e4 <CAN0_Handler>:
 * \param void
 *
 * \retval 
 */
void CAN0_Handler( void )
{
   801e4:	b510      	push	{r4, lr}
   801e6:	b084      	sub	sp, #16
	if(DEBUG_INTERRUPT)printf("CAN0 interrupt\n\r");
	char can_sr = CAN0->CAN_SR; 
   801e8:	4b15      	ldr	r3, [pc, #84]	; (80240 <CAN0_Handler+0x5c>)
   801ea:	691c      	ldr	r4, [r3, #16]
	
	//RX interrupt
	if(can_sr & (CAN_SR_MB1 | CAN_SR_MB2) )//Only mailbox 1 and 2 specified for receiving
   801ec:	f014 0f06 	tst.w	r4, #6
   801f0:	d019      	beq.n	80226 <CAN0_Handler+0x42>
	{
		CAN_MESSAGE message;
		if(can_sr & CAN_SR_MB1)  //Mailbox 1 event
   801f2:	f014 0f02 	tst.w	r4, #2
   801f6:	d108      	bne.n	8020a <CAN0_Handler+0x26>
		{
			can_receive(&message, 1);

		}
		else if(can_sr & CAN_SR_MB2) //Mailbox 2 event
   801f8:	f014 0f04 	tst.w	r4, #4
   801fc:	d00a      	beq.n	80214 <CAN0_Handler+0x30>
		
		{
			can_receive(&message, 2);
   801fe:	2102      	movs	r1, #2
   80200:	a801      	add	r0, sp, #4
   80202:	4b10      	ldr	r3, [pc, #64]	; (80244 <CAN0_Handler+0x60>)
   80204:	4798      	blx	r3
			printf("CAN0 message arrived in non-used mailbox\n\r");
		}

		if(DEBUG_INTERRUPT)printf("message id: %d\n\r", message.id);
		if(DEBUG_INTERRUPT)printf("message data length: %d\n\r", message.data_length);
		for (int i = 0; i < message.data_length; i++)
   80206:	2300      	movs	r3, #0
   80208:	e009      	b.n	8021e <CAN0_Handler+0x3a>
			can_receive(&message, 1);
   8020a:	2101      	movs	r1, #1
   8020c:	a801      	add	r0, sp, #4
   8020e:	4b0d      	ldr	r3, [pc, #52]	; (80244 <CAN0_Handler+0x60>)
   80210:	4798      	blx	r3
   80212:	e7f8      	b.n	80206 <CAN0_Handler+0x22>
			printf("CAN0 message arrived in non-used mailbox\n\r");
   80214:	480c      	ldr	r0, [pc, #48]	; (80248 <CAN0_Handler+0x64>)
   80216:	4b0d      	ldr	r3, [pc, #52]	; (8024c <CAN0_Handler+0x68>)
   80218:	4798      	blx	r3
   8021a:	e7f4      	b.n	80206 <CAN0_Handler+0x22>
		for (int i = 0; i < message.data_length; i++)
   8021c:	3301      	adds	r3, #1
   8021e:	f89d 2006 	ldrb.w	r2, [sp, #6]
   80222:	4293      	cmp	r3, r2
   80224:	dbfa      	blt.n	8021c <CAN0_Handler+0x38>
			if(DEBUG_INTERRUPT)printf("%d ", message.data[i]);
		}
		if(DEBUG_INTERRUPT)printf("\n\r");
	}
	
	if(can_sr & CAN_SR_MB0)
   80226:	f014 0f01 	tst.w	r4, #1
   8022a:	d002      	beq.n	80232 <CAN0_Handler+0x4e>
	{
		if(DEBUG_INTERRUPT) printf("CAN0 MB0 ready to send \n\r");
		
	//Disable interrupt
		CAN0->CAN_IDR = CAN_IER_MB0;
   8022c:	2201      	movs	r2, #1
   8022e:	4b04      	ldr	r3, [pc, #16]	; (80240 <CAN0_Handler+0x5c>)
   80230:	609a      	str	r2, [r3, #8]
 */
__STATIC_INLINE void __NVIC_ClearPendingIRQ(IRQn_Type IRQn)
{
  if ((int32_t)(IRQn) >= 0)
  {
    NVIC->ICPR[(((uint32_t)IRQn) >> 5UL)] = (uint32_t)(1UL << (((uint32_t)IRQn) & 0x1FUL));
   80232:	f44f 6200 	mov.w	r2, #2048	; 0x800
   80236:	4b06      	ldr	r3, [pc, #24]	; (80250 <CAN0_Handler+0x6c>)
   80238:	f8c3 2184 	str.w	r2, [r3, #388]	; 0x184

	}
	
	NVIC_ClearPendingIRQ(ID_CAN0);
	//sei();*/
}
   8023c:	b004      	add	sp, #16
   8023e:	bd10      	pop	{r4, pc}
   80240:	400b4000 	.word	0x400b4000
   80244:	00080161 	.word	0x00080161
   80248:	00080874 	.word	0x00080874
   8024c:	00080655 	.word	0x00080655
   80250:	e000e100 	.word	0xe000e100

00080254 <Dummy_Handler>:

/**
 * \brief Default interrupt handler for unused IRQs.
 */
void Dummy_Handler(void)
{
   80254:	e7fe      	b.n	80254 <Dummy_Handler>
	...

00080258 <Reset_Handler>:
{
   80258:	b508      	push	{r3, lr}
        if (pSrc != pDest) {
   8025a:	4b11      	ldr	r3, [pc, #68]	; (802a0 <Reset_Handler+0x48>)
   8025c:	4a11      	ldr	r2, [pc, #68]	; (802a4 <Reset_Handler+0x4c>)
   8025e:	429a      	cmp	r2, r3
   80260:	d009      	beq.n	80276 <Reset_Handler+0x1e>
   80262:	4b0f      	ldr	r3, [pc, #60]	; (802a0 <Reset_Handler+0x48>)
   80264:	4a0f      	ldr	r2, [pc, #60]	; (802a4 <Reset_Handler+0x4c>)
   80266:	e003      	b.n	80270 <Reset_Handler+0x18>
                        *pDest++ = *pSrc++;
   80268:	6811      	ldr	r1, [r2, #0]
   8026a:	6019      	str	r1, [r3, #0]
   8026c:	3304      	adds	r3, #4
   8026e:	3204      	adds	r2, #4
                for (; pDest < &_erelocate;) {
   80270:	490d      	ldr	r1, [pc, #52]	; (802a8 <Reset_Handler+0x50>)
   80272:	428b      	cmp	r3, r1
   80274:	d3f8      	bcc.n	80268 <Reset_Handler+0x10>
                        *pDest++ = *pSrc++;
   80276:	4b0d      	ldr	r3, [pc, #52]	; (802ac <Reset_Handler+0x54>)
   80278:	e002      	b.n	80280 <Reset_Handler+0x28>
                *pDest++ = 0;
   8027a:	2200      	movs	r2, #0
   8027c:	601a      	str	r2, [r3, #0]
   8027e:	3304      	adds	r3, #4
        for (pDest = &_szero; pDest < &_ezero;) {
   80280:	4a0b      	ldr	r2, [pc, #44]	; (802b0 <Reset_Handler+0x58>)
   80282:	4293      	cmp	r3, r2
   80284:	d3f9      	bcc.n	8027a <Reset_Handler+0x22>
        SCB->VTOR = ((uint32_t) pSrc & SCB_VTOR_TBLOFF_Msk);
   80286:	4b0b      	ldr	r3, [pc, #44]	; (802b4 <Reset_Handler+0x5c>)
   80288:	f023 4360 	bic.w	r3, r3, #3758096384	; 0xe0000000
   8028c:	f023 037f 	bic.w	r3, r3, #127	; 0x7f
   80290:	4a09      	ldr	r2, [pc, #36]	; (802b8 <Reset_Handler+0x60>)
   80292:	6093      	str	r3, [r2, #8]
        __libc_init_array();
   80294:	4b09      	ldr	r3, [pc, #36]	; (802bc <Reset_Handler+0x64>)
   80296:	4798      	blx	r3
        main();
   80298:	4b09      	ldr	r3, [pc, #36]	; (802c0 <Reset_Handler+0x68>)
   8029a:	4798      	blx	r3
   8029c:	e7fe      	b.n	8029c <Reset_Handler+0x44>
   8029e:	bf00      	nop
   802a0:	20000000 	.word	0x20000000
   802a4:	000808f0 	.word	0x000808f0
   802a8:	20000434 	.word	0x20000434
   802ac:	20000434 	.word	0x20000434
   802b0:	200004b8 	.word	0x200004b8
   802b4:	00080000 	.word	0x00080000
   802b8:	e000ed00 	.word	0xe000ed00
   802bc:	00080705 	.word	0x00080705
   802c0:	00080391 	.word	0x00080391

000802c4 <SystemInit>:
 * Initialize the System and update the SystemFrequency variable.
 */
void SystemInit( void )
{
  /* Set FWS according to SYS_BOARD_MCKR configuration */
  EFC0->EEFC_FMR = EEFC_FMR_FWS(4);
   802c4:	f44f 6380 	mov.w	r3, #1024	; 0x400
   802c8:	4a20      	ldr	r2, [pc, #128]	; (8034c <SystemInit+0x88>)
   802ca:	6013      	str	r3, [r2, #0]
  EFC1->EEFC_FMR = EEFC_FMR_FWS(4);
   802cc:	f502 7200 	add.w	r2, r2, #512	; 0x200
   802d0:	6013      	str	r3, [r2, #0]

  /* Initialize main oscillator */
  if ( !(PMC->CKGR_MOR & CKGR_MOR_MOSCSEL) )
   802d2:	4b1f      	ldr	r3, [pc, #124]	; (80350 <SystemInit+0x8c>)
   802d4:	6a1b      	ldr	r3, [r3, #32]
   802d6:	f013 7f80 	tst.w	r3, #16777216	; 0x1000000
   802da:	d107      	bne.n	802ec <SystemInit+0x28>
  {
    PMC->CKGR_MOR = CKGR_MOR_KEY_PASSWD | SYS_BOARD_OSCOUNT | CKGR_MOR_MOSCRCEN | CKGR_MOR_MOSCXTEN;
   802dc:	4a1d      	ldr	r2, [pc, #116]	; (80354 <SystemInit+0x90>)
   802de:	4b1c      	ldr	r3, [pc, #112]	; (80350 <SystemInit+0x8c>)
   802e0:	621a      	str	r2, [r3, #32]
    while ( !(PMC->PMC_SR & PMC_SR_MOSCXTS) )
   802e2:	4b1b      	ldr	r3, [pc, #108]	; (80350 <SystemInit+0x8c>)
   802e4:	6e9b      	ldr	r3, [r3, #104]	; 0x68
   802e6:	f013 0f01 	tst.w	r3, #1
   802ea:	d0fa      	beq.n	802e2 <SystemInit+0x1e>
    {
    }
  }

  /* Switch to 3-20MHz Xtal oscillator */
  PMC->CKGR_MOR = CKGR_MOR_KEY_PASSWD | SYS_BOARD_OSCOUNT | CKGR_MOR_MOSCRCEN | CKGR_MOR_MOSCXTEN | CKGR_MOR_MOSCSEL;
   802ec:	4a1a      	ldr	r2, [pc, #104]	; (80358 <SystemInit+0x94>)
   802ee:	4b18      	ldr	r3, [pc, #96]	; (80350 <SystemInit+0x8c>)
   802f0:	621a      	str	r2, [r3, #32]

  while ( !(PMC->PMC_SR & PMC_SR_MOSCSELS) )
   802f2:	4b17      	ldr	r3, [pc, #92]	; (80350 <SystemInit+0x8c>)
   802f4:	6e9b      	ldr	r3, [r3, #104]	; 0x68
   802f6:	f413 3f80 	tst.w	r3, #65536	; 0x10000
   802fa:	d0fa      	beq.n	802f2 <SystemInit+0x2e>
  {
  }
 	PMC->PMC_MCKR = (PMC->PMC_MCKR & ~(uint32_t)PMC_MCKR_CSS_Msk) | PMC_MCKR_CSS_MAIN_CLK;
   802fc:	4a14      	ldr	r2, [pc, #80]	; (80350 <SystemInit+0x8c>)
   802fe:	6b13      	ldr	r3, [r2, #48]	; 0x30
   80300:	f023 0303 	bic.w	r3, r3, #3
   80304:	f043 0301 	orr.w	r3, r3, #1
   80308:	6313      	str	r3, [r2, #48]	; 0x30
  while (!(PMC->PMC_SR & PMC_SR_MCKRDY))
   8030a:	4b11      	ldr	r3, [pc, #68]	; (80350 <SystemInit+0x8c>)
   8030c:	6e9b      	ldr	r3, [r3, #104]	; 0x68
   8030e:	f013 0f08 	tst.w	r3, #8
   80312:	d0fa      	beq.n	8030a <SystemInit+0x46>
  {
  }

  /* Initialize PLLA */
  PMC->CKGR_PLLAR = SYS_BOARD_PLLAR;
   80314:	4a11      	ldr	r2, [pc, #68]	; (8035c <SystemInit+0x98>)
   80316:	4b0e      	ldr	r3, [pc, #56]	; (80350 <SystemInit+0x8c>)
   80318:	629a      	str	r2, [r3, #40]	; 0x28
  while ( !(PMC->PMC_SR & PMC_SR_LOCKA) )
   8031a:	4b0d      	ldr	r3, [pc, #52]	; (80350 <SystemInit+0x8c>)
   8031c:	6e9b      	ldr	r3, [r3, #104]	; 0x68
   8031e:	f013 0f02 	tst.w	r3, #2
   80322:	d0fa      	beq.n	8031a <SystemInit+0x56>
  {
  }

  /* Switch to main clock */
  PMC->PMC_MCKR = (SYS_BOARD_MCKR & ~PMC_MCKR_CSS_Msk) | PMC_MCKR_CSS_MAIN_CLK;
   80324:	2211      	movs	r2, #17
   80326:	4b0a      	ldr	r3, [pc, #40]	; (80350 <SystemInit+0x8c>)
   80328:	631a      	str	r2, [r3, #48]	; 0x30
  while ( !(PMC->PMC_SR & PMC_SR_MCKRDY) )
   8032a:	4b09      	ldr	r3, [pc, #36]	; (80350 <SystemInit+0x8c>)
   8032c:	6e9b      	ldr	r3, [r3, #104]	; 0x68
   8032e:	f013 0f08 	tst.w	r3, #8
   80332:	d0fa      	beq.n	8032a <SystemInit+0x66>
  {
  }

  /* Switch to PLLA */
  PMC->PMC_MCKR = SYS_BOARD_MCKR;
   80334:	2212      	movs	r2, #18
   80336:	4b06      	ldr	r3, [pc, #24]	; (80350 <SystemInit+0x8c>)
   80338:	631a      	str	r2, [r3, #48]	; 0x30
  while ( !(PMC->PMC_SR & PMC_SR_MCKRDY) )
   8033a:	4b05      	ldr	r3, [pc, #20]	; (80350 <SystemInit+0x8c>)
   8033c:	6e9b      	ldr	r3, [r3, #104]	; 0x68
   8033e:	f013 0f08 	tst.w	r3, #8
   80342:	d0fa      	beq.n	8033a <SystemInit+0x76>
  {
  }

  SystemCoreClock = CHIP_FREQ_CPU_MAX;
   80344:	4a06      	ldr	r2, [pc, #24]	; (80360 <SystemInit+0x9c>)
   80346:	4b07      	ldr	r3, [pc, #28]	; (80364 <SystemInit+0xa0>)
   80348:	601a      	str	r2, [r3, #0]
   8034a:	4770      	bx	lr
   8034c:	400e0a00 	.word	0x400e0a00
   80350:	400e0600 	.word	0x400e0600
   80354:	00370809 	.word	0x00370809
   80358:	01370809 	.word	0x01370809
   8035c:	200d3f01 	.word	0x200d3f01
   80360:	0501bd00 	.word	0x0501bd00
   80364:	20000000 	.word	0x20000000

00080368 <toggleLED1>:


void toggleLED1()
{

	if(((PIOA->PIO_ODSR & 0x00040000) >> 19) == 0x1)
   80368:	4b03      	ldr	r3, [pc, #12]	; (80378 <toggleLED1+0x10>)
   8036a:	6b9a      	ldr	r2, [r3, #56]	; 0x38
		PIOA->PIO_CODR |= (0x1 << 19);
	}
	else
	{
		/* Setting output value to 1 */
		PIOA->PIO_SODR |= (0x1 << 19);
   8036c:	6b1a      	ldr	r2, [r3, #48]	; 0x30
   8036e:	f442 2200 	orr.w	r2, r2, #524288	; 0x80000
   80372:	631a      	str	r2, [r3, #48]	; 0x30
   80374:	4770      	bx	lr
   80376:	bf00      	nop
   80378:	400e0e00 	.word	0x400e0e00

0008037c <toggleLED2>:
}

void toggleLED2()
{

	if(((PIOA->PIO_ODSR & 0x00050000) >> 20) == 0x1)
   8037c:	4b03      	ldr	r3, [pc, #12]	; (8038c <toggleLED2+0x10>)
   8037e:	6b9a      	ldr	r2, [r3, #56]	; 0x38
		PIOA->PIO_CODR |= (0x1 << 20);
	}
	else
	{
		/* Setting output value to 1 */
		PIOA->PIO_SODR |= (0x1 << 20);
   80380:	6b1a      	ldr	r2, [r3, #48]	; 0x30
   80382:	f442 1280 	orr.w	r2, r2, #1048576	; 0x100000
   80386:	631a      	str	r2, [r3, #48]	; 0x30
   80388:	4770      	bx	lr
   8038a:	bf00      	nop
   8038c:	400e0e00 	.word	0x400e0e00

00080390 <main>:
	}
}

int main(void)
{
   80390:	b508      	push	{r3, lr}
    /* Initialize the SAM system */
    SystemInit();
   80392:	4b08      	ldr	r3, [pc, #32]	; (803b4 <main+0x24>)
   80394:	4798      	blx	r3

    /* Enables pin A19 and A20 */
	PIOA->PIO_PER |= ((0x1 << 20) | (0x1 << 19));
   80396:	4b08      	ldr	r3, [pc, #32]	; (803b8 <main+0x28>)
   80398:	681a      	ldr	r2, [r3, #0]
   8039a:	f442 12c0 	orr.w	r2, r2, #1572864	; 0x180000
   8039e:	601a      	str	r2, [r3, #0]
    
	/* Enable the output on the I/O line */
    PIOA->PIO_OER |= ((0x1 << 20) | (0x1 << 19));
   803a0:	691a      	ldr	r2, [r3, #16]
   803a2:	f442 12c0 	orr.w	r2, r2, #1572864	; 0x180000
   803a6:	611a      	str	r2, [r3, #16]
	
	while(1)
	{
		toggleLED1();
   803a8:	4b04      	ldr	r3, [pc, #16]	; (803bc <main+0x2c>)
   803aa:	4798      	blx	r3
		toggleLED2();
   803ac:	4b04      	ldr	r3, [pc, #16]	; (803c0 <main+0x30>)
   803ae:	4798      	blx	r3
   803b0:	e7fa      	b.n	803a8 <main+0x18>
   803b2:	bf00      	nop
   803b4:	000802c5 	.word	0x000802c5
   803b8:	400e0e00 	.word	0x400e0e00
   803bc:	00080369 	.word	0x00080369
   803c0:	0008037d 	.word	0x0008037d

000803c4 <printchar>:
#include "uart.h"


//insert function to print to here
static void printchar(char **str, int c)
{
   803c4:	b508      	push	{r3, lr}
	(void) uart_putchar(c);  //Send characters to uart
   803c6:	b2c8      	uxtb	r0, r1
   803c8:	4b01      	ldr	r3, [pc, #4]	; (803d0 <printchar+0xc>)
   803ca:	4798      	blx	r3
   803cc:	bd08      	pop	{r3, pc}
   803ce:	bf00      	nop
   803d0:	00080679 	.word	0x00080679

000803d4 <prints>:

#define PAD_RIGHT 1
#define PAD_ZERO 2

static int prints(char **out, const char *string, int width, int pad)
{
   803d4:	e92d 41f0 	stmdb	sp!, {r4, r5, r6, r7, r8, lr}
   803d8:	4607      	mov	r7, r0
   803da:	460e      	mov	r6, r1
	register int pc = 0, padchar = ' ';

	if (width > 0) {
   803dc:	1e15      	subs	r5, r2, #0
   803de:	dd02      	ble.n	803e6 <prints+0x12>
   803e0:	460a      	mov	r2, r1
   803e2:	2100      	movs	r1, #0
   803e4:	e004      	b.n	803f0 <prints+0x1c>
	register int pc = 0, padchar = ' ';
   803e6:	f04f 0820 	mov.w	r8, #32
   803ea:	e00e      	b.n	8040a <prints+0x36>
		register int len = 0;
		register const char *ptr;
		for (ptr = string; *ptr; ++ptr) ++len;
   803ec:	3101      	adds	r1, #1
   803ee:	3201      	adds	r2, #1
   803f0:	7810      	ldrb	r0, [r2, #0]
   803f2:	2800      	cmp	r0, #0
   803f4:	d1fa      	bne.n	803ec <prints+0x18>
		if (len >= width) width = 0;
   803f6:	42a9      	cmp	r1, r5
   803f8:	da01      	bge.n	803fe <prints+0x2a>
		else width -= len;
   803fa:	1a6d      	subs	r5, r5, r1
   803fc:	e000      	b.n	80400 <prints+0x2c>
		if (len >= width) width = 0;
   803fe:	2500      	movs	r5, #0
		if (pad & PAD_ZERO) padchar = '0';
   80400:	f013 0f02 	tst.w	r3, #2
   80404:	d106      	bne.n	80414 <prints+0x40>
	register int pc = 0, padchar = ' ';
   80406:	f04f 0820 	mov.w	r8, #32
	}
	if (!(pad & PAD_RIGHT)) {
   8040a:	f013 0401 	ands.w	r4, r3, #1
   8040e:	d00a      	beq.n	80426 <prints+0x52>
	register int pc = 0, padchar = ' ';
   80410:	2400      	movs	r4, #0
   80412:	e010      	b.n	80436 <prints+0x62>
		if (pad & PAD_ZERO) padchar = '0';
   80414:	f04f 0830 	mov.w	r8, #48	; 0x30
   80418:	e7f7      	b.n	8040a <prints+0x36>
		for ( ; width > 0; --width) {
			printchar (out, padchar);
   8041a:	4641      	mov	r1, r8
   8041c:	4638      	mov	r0, r7
   8041e:	4b0d      	ldr	r3, [pc, #52]	; (80454 <prints+0x80>)
   80420:	4798      	blx	r3
			++pc;
   80422:	3401      	adds	r4, #1
		for ( ; width > 0; --width) {
   80424:	3d01      	subs	r5, #1
   80426:	2d00      	cmp	r5, #0
   80428:	dcf7      	bgt.n	8041a <prints+0x46>
   8042a:	e004      	b.n	80436 <prints+0x62>
		}
	}
	for ( ; *string ; ++string) {
		printchar (out, *string);
   8042c:	4638      	mov	r0, r7
   8042e:	4b09      	ldr	r3, [pc, #36]	; (80454 <prints+0x80>)
   80430:	4798      	blx	r3
		++pc;
   80432:	3401      	adds	r4, #1
	for ( ; *string ; ++string) {
   80434:	3601      	adds	r6, #1
   80436:	7831      	ldrb	r1, [r6, #0]
   80438:	2900      	cmp	r1, #0
   8043a:	d1f7      	bne.n	8042c <prints+0x58>
   8043c:	e005      	b.n	8044a <prints+0x76>
	}
	for ( ; width > 0; --width) {
		printchar (out, padchar);
   8043e:	4641      	mov	r1, r8
   80440:	4638      	mov	r0, r7
   80442:	4b04      	ldr	r3, [pc, #16]	; (80454 <prints+0x80>)
   80444:	4798      	blx	r3
		++pc;
   80446:	3401      	adds	r4, #1
	for ( ; width > 0; --width) {
   80448:	3d01      	subs	r5, #1
   8044a:	2d00      	cmp	r5, #0
   8044c:	dcf7      	bgt.n	8043e <prints+0x6a>
	}

	return pc;
}
   8044e:	4620      	mov	r0, r4
   80450:	e8bd 81f0 	ldmia.w	sp!, {r4, r5, r6, r7, r8, pc}
   80454:	000803c5 	.word	0x000803c5

00080458 <printi>:

/* the following should be enough for 32 bit int */
#define PRINT_BUF_LEN 12

static int printi(char **out, int i, int b, int sg, int width, int pad, int letbase)
{
   80458:	b5f0      	push	{r4, r5, r6, r7, lr}
   8045a:	b085      	sub	sp, #20
   8045c:	4607      	mov	r7, r0
   8045e:	980c      	ldr	r0, [sp, #48]	; 0x30
	char print_buf[PRINT_BUF_LEN];
	register char *s;
	register int t, neg = 0, pc = 0;
	register unsigned int u = i;

	if (i == 0) {
   80460:	b151      	cbz	r1, 80478 <printi+0x20>
   80462:	461e      	mov	r6, r3
   80464:	460c      	mov	r4, r1
		print_buf[0] = '0';
		print_buf[1] = '\0';
		return prints (out, print_buf, width, pad);
	}

	if (sg && b == 10 && i < 0) {
   80466:	b113      	cbz	r3, 8046e <printi+0x16>
   80468:	2a0a      	cmp	r2, #10
   8046a:	d012      	beq.n	80492 <printi+0x3a>
	register int t, neg = 0, pc = 0;
   8046c:	2600      	movs	r6, #0
		neg = 1;
		u = -i;
	}

	s = print_buf + PRINT_BUF_LEN-1;
	*s = '\0';
   8046e:	ad04      	add	r5, sp, #16
   80470:	2300      	movs	r3, #0
   80472:	f805 3d01 	strb.w	r3, [r5, #-1]!

	while (u) {
   80476:	e018      	b.n	804aa <printi+0x52>
		print_buf[0] = '0';
   80478:	2330      	movs	r3, #48	; 0x30
   8047a:	f88d 3004 	strb.w	r3, [sp, #4]
		print_buf[1] = '\0';
   8047e:	2300      	movs	r3, #0
   80480:	f88d 3005 	strb.w	r3, [sp, #5]
		return prints (out, print_buf, width, pad);
   80484:	9b0b      	ldr	r3, [sp, #44]	; 0x2c
   80486:	9a0a      	ldr	r2, [sp, #40]	; 0x28
   80488:	a901      	add	r1, sp, #4
   8048a:	4638      	mov	r0, r7
   8048c:	4c1b      	ldr	r4, [pc, #108]	; (804fc <printi+0xa4>)
   8048e:	47a0      	blx	r4
   80490:	e029      	b.n	804e6 <printi+0x8e>
	if (sg && b == 10 && i < 0) {
   80492:	2900      	cmp	r1, #0
   80494:	db01      	blt.n	8049a <printi+0x42>
	register int t, neg = 0, pc = 0;
   80496:	2600      	movs	r6, #0
   80498:	e7e9      	b.n	8046e <printi+0x16>
		u = -i;
   8049a:	424c      	negs	r4, r1
		neg = 1;
   8049c:	2601      	movs	r6, #1
   8049e:	e7e6      	b.n	8046e <printi+0x16>
		t = u % b;
		if( t >= 10 )
			t += letbase - '0' - 10;
		*--s = t + '0';
   804a0:	3330      	adds	r3, #48	; 0x30
   804a2:	f805 3d01 	strb.w	r3, [r5, #-1]!
		u /= b;
   804a6:	fbb4 f4f2 	udiv	r4, r4, r2
	while (u) {
   804aa:	b14c      	cbz	r4, 804c0 <printi+0x68>
		t = u % b;
   804ac:	fbb4 f3f2 	udiv	r3, r4, r2
   804b0:	fb02 4313 	mls	r3, r2, r3, r4
		if( t >= 10 )
   804b4:	2b09      	cmp	r3, #9
   804b6:	ddf3      	ble.n	804a0 <printi+0x48>
			t += letbase - '0' - 10;
   804b8:	f1a0 013a 	sub.w	r1, r0, #58	; 0x3a
   804bc:	440b      	add	r3, r1
   804be:	e7ef      	b.n	804a0 <printi+0x48>
	}

	if (neg) {
   804c0:	b156      	cbz	r6, 804d8 <printi+0x80>
		if( width && (pad & PAD_ZERO) ) {
   804c2:	9b0a      	ldr	r3, [sp, #40]	; 0x28
   804c4:	b11b      	cbz	r3, 804ce <printi+0x76>
   804c6:	9b0b      	ldr	r3, [sp, #44]	; 0x2c
   804c8:	f013 0f02 	tst.w	r3, #2
   804cc:	d10d      	bne.n	804ea <printi+0x92>
			printchar (out, '-');
			++pc;
			--width;
		}
		else {
			*--s = '-';
   804ce:	232d      	movs	r3, #45	; 0x2d
   804d0:	f805 3c01 	strb.w	r3, [r5, #-1]
   804d4:	3d01      	subs	r5, #1
	register int t, neg = 0, pc = 0;
   804d6:	2600      	movs	r6, #0
		}
	}

	return pc + prints (out, s, width, pad);
   804d8:	9b0b      	ldr	r3, [sp, #44]	; 0x2c
   804da:	9a0a      	ldr	r2, [sp, #40]	; 0x28
   804dc:	4629      	mov	r1, r5
   804de:	4638      	mov	r0, r7
   804e0:	4c06      	ldr	r4, [pc, #24]	; (804fc <printi+0xa4>)
   804e2:	47a0      	blx	r4
   804e4:	4430      	add	r0, r6
}
   804e6:	b005      	add	sp, #20
   804e8:	bdf0      	pop	{r4, r5, r6, r7, pc}
			printchar (out, '-');
   804ea:	212d      	movs	r1, #45	; 0x2d
   804ec:	4638      	mov	r0, r7
   804ee:	4b04      	ldr	r3, [pc, #16]	; (80500 <printi+0xa8>)
   804f0:	4798      	blx	r3
			--width;
   804f2:	9b0a      	ldr	r3, [sp, #40]	; 0x28
   804f4:	3b01      	subs	r3, #1
   804f6:	930a      	str	r3, [sp, #40]	; 0x28
   804f8:	e7ee      	b.n	804d8 <printi+0x80>
   804fa:	bf00      	nop
   804fc:	000803d5 	.word	0x000803d5
   80500:	000803c5 	.word	0x000803c5

00080504 <print>:

static int print( char **out, const char *format, va_list args )
{
   80504:	b5f0      	push	{r4, r5, r6, r7, lr}
   80506:	b089      	sub	sp, #36	; 0x24
   80508:	4606      	mov	r6, r0
   8050a:	460c      	mov	r4, r1
   8050c:	9205      	str	r2, [sp, #20]
	register int width, pad;
	register int pc = 0;
   8050e:	2500      	movs	r5, #0
	char scr[2];

	for (; *format != 0; ++format) {
   80510:	e081      	b.n	80616 <print+0x112>
			++format;
			width = pad = 0;
			if (*format == '\0') break;
			if (*format == '%') goto out;
			if (*format == '-') {
				++format;
   80512:	1ca2      	adds	r2, r4, #2
				pad = PAD_RIGHT;
   80514:	2301      	movs	r3, #1
   80516:	e08b      	b.n	80630 <print+0x12c>
			}
			while (*format == '0') {
				++format;
   80518:	3401      	adds	r4, #1
				pad |= PAD_ZERO;
   8051a:	f043 0302 	orr.w	r3, r3, #2
			while (*format == '0') {
   8051e:	7822      	ldrb	r2, [r4, #0]
   80520:	2a30      	cmp	r2, #48	; 0x30
   80522:	d0f9      	beq.n	80518 <print+0x14>
   80524:	2200      	movs	r2, #0
   80526:	e006      	b.n	80536 <print+0x32>
			}
			for ( ; *format >= '0' && *format <= '9'; ++format) {
				width *= 10;
   80528:	eb02 0282 	add.w	r2, r2, r2, lsl #2
   8052c:	0050      	lsls	r0, r2, #1
				width += *format - '0';
   8052e:	f1a1 0230 	sub.w	r2, r1, #48	; 0x30
   80532:	4402      	add	r2, r0
			for ( ; *format >= '0' && *format <= '9'; ++format) {
   80534:	3401      	adds	r4, #1
   80536:	7821      	ldrb	r1, [r4, #0]
   80538:	f1a1 0030 	sub.w	r0, r1, #48	; 0x30
   8053c:	b2c0      	uxtb	r0, r0
   8053e:	2809      	cmp	r0, #9
   80540:	d9f2      	bls.n	80528 <print+0x24>
			}
			if( *format == 's' ) {
   80542:	2973      	cmp	r1, #115	; 0x73
   80544:	d018      	beq.n	80578 <print+0x74>
				register char *s = (char *)va_arg( args, int );
				pc += prints (out, s?s:"(null)", width, pad);
				continue;
			}
			if( *format == 'd' ) {
   80546:	2964      	cmp	r1, #100	; 0x64
   80548:	d022      	beq.n	80590 <print+0x8c>
				pc += printi (out, va_arg( args, int ), 10, 1, width, pad, 'a');
				continue;
			}
			if( *format == 'x' ) {
   8054a:	2978      	cmp	r1, #120	; 0x78
   8054c:	d02f      	beq.n	805ae <print+0xaa>
				pc += printi (out, va_arg( args, int ), 16, 0, width, pad, 'a');
				continue;
			}
			if( *format == 'X' ) {
   8054e:	2958      	cmp	r1, #88	; 0x58
   80550:	d03c      	beq.n	805cc <print+0xc8>
				pc += printi (out, va_arg( args, int ), 16, 0, width, pad, 'A');
				continue;
			}
			if( *format == 'u' ) {
   80552:	2975      	cmp	r1, #117	; 0x75
   80554:	d049      	beq.n	805ea <print+0xe6>
				pc += printi (out, va_arg( args, int ), 10, 0, width, pad, 'a');
				continue;
			}
			if( *format == 'c' ) {
   80556:	2963      	cmp	r1, #99	; 0x63
   80558:	d15c      	bne.n	80614 <print+0x110>
				/* char are converted to int then pushed on the stack */
				scr[0] = (char)va_arg( args, int );
   8055a:	9905      	ldr	r1, [sp, #20]
   8055c:	1d08      	adds	r0, r1, #4
   8055e:	9005      	str	r0, [sp, #20]
   80560:	7809      	ldrb	r1, [r1, #0]
   80562:	f88d 101c 	strb.w	r1, [sp, #28]
				scr[1] = '\0';
   80566:	2100      	movs	r1, #0
   80568:	f88d 101d 	strb.w	r1, [sp, #29]
				pc += prints (out, scr, width, pad);
   8056c:	a907      	add	r1, sp, #28
   8056e:	4630      	mov	r0, r6
   80570:	4f34      	ldr	r7, [pc, #208]	; (80644 <print+0x140>)
   80572:	47b8      	blx	r7
   80574:	4405      	add	r5, r0
				continue;
   80576:	e04d      	b.n	80614 <print+0x110>
				register char *s = (char *)va_arg( args, int );
   80578:	9905      	ldr	r1, [sp, #20]
   8057a:	1d08      	adds	r0, r1, #4
   8057c:	9005      	str	r0, [sp, #20]
   8057e:	6809      	ldr	r1, [r1, #0]
				pc += prints (out, s?s:"(null)", width, pad);
   80580:	b121      	cbz	r1, 8058c <print+0x88>
   80582:	4630      	mov	r0, r6
   80584:	4f2f      	ldr	r7, [pc, #188]	; (80644 <print+0x140>)
   80586:	47b8      	blx	r7
   80588:	4405      	add	r5, r0
				continue;
   8058a:	e043      	b.n	80614 <print+0x110>
				pc += prints (out, s?s:"(null)", width, pad);
   8058c:	492e      	ldr	r1, [pc, #184]	; (80648 <print+0x144>)
   8058e:	e7f8      	b.n	80582 <print+0x7e>
				pc += printi (out, va_arg( args, int ), 10, 1, width, pad, 'a');
   80590:	9905      	ldr	r1, [sp, #20]
   80592:	1d08      	adds	r0, r1, #4
   80594:	9005      	str	r0, [sp, #20]
   80596:	6809      	ldr	r1, [r1, #0]
   80598:	2061      	movs	r0, #97	; 0x61
   8059a:	9002      	str	r0, [sp, #8]
   8059c:	9301      	str	r3, [sp, #4]
   8059e:	9200      	str	r2, [sp, #0]
   805a0:	2301      	movs	r3, #1
   805a2:	220a      	movs	r2, #10
   805a4:	4630      	mov	r0, r6
   805a6:	4f29      	ldr	r7, [pc, #164]	; (8064c <print+0x148>)
   805a8:	47b8      	blx	r7
   805aa:	4405      	add	r5, r0
				continue;
   805ac:	e032      	b.n	80614 <print+0x110>
				pc += printi (out, va_arg( args, int ), 16, 0, width, pad, 'a');
   805ae:	9905      	ldr	r1, [sp, #20]
   805b0:	1d08      	adds	r0, r1, #4
   805b2:	9005      	str	r0, [sp, #20]
   805b4:	6809      	ldr	r1, [r1, #0]
   805b6:	2061      	movs	r0, #97	; 0x61
   805b8:	9002      	str	r0, [sp, #8]
   805ba:	9301      	str	r3, [sp, #4]
   805bc:	9200      	str	r2, [sp, #0]
   805be:	2300      	movs	r3, #0
   805c0:	2210      	movs	r2, #16
   805c2:	4630      	mov	r0, r6
   805c4:	4f21      	ldr	r7, [pc, #132]	; (8064c <print+0x148>)
   805c6:	47b8      	blx	r7
   805c8:	4405      	add	r5, r0
				continue;
   805ca:	e023      	b.n	80614 <print+0x110>
				pc += printi (out, va_arg( args, int ), 16, 0, width, pad, 'A');
   805cc:	9905      	ldr	r1, [sp, #20]
   805ce:	1d08      	adds	r0, r1, #4
   805d0:	9005      	str	r0, [sp, #20]
   805d2:	6809      	ldr	r1, [r1, #0]
   805d4:	2041      	movs	r0, #65	; 0x41
   805d6:	9002      	str	r0, [sp, #8]
   805d8:	9301      	str	r3, [sp, #4]
   805da:	9200      	str	r2, [sp, #0]
   805dc:	2300      	movs	r3, #0
   805de:	2210      	movs	r2, #16
   805e0:	4630      	mov	r0, r6
   805e2:	4f1a      	ldr	r7, [pc, #104]	; (8064c <print+0x148>)
   805e4:	47b8      	blx	r7
   805e6:	4405      	add	r5, r0
				continue;
   805e8:	e014      	b.n	80614 <print+0x110>
				pc += printi (out, va_arg( args, int ), 10, 0, width, pad, 'a');
   805ea:	9905      	ldr	r1, [sp, #20]
   805ec:	1d08      	adds	r0, r1, #4
   805ee:	9005      	str	r0, [sp, #20]
   805f0:	6809      	ldr	r1, [r1, #0]
   805f2:	2061      	movs	r0, #97	; 0x61
   805f4:	9002      	str	r0, [sp, #8]
   805f6:	9301      	str	r3, [sp, #4]
   805f8:	9200      	str	r2, [sp, #0]
   805fa:	2300      	movs	r3, #0
   805fc:	220a      	movs	r2, #10
   805fe:	4630      	mov	r0, r6
   80600:	4f12      	ldr	r7, [pc, #72]	; (8064c <print+0x148>)
   80602:	47b8      	blx	r7
   80604:	4405      	add	r5, r0
				continue;
   80606:	e005      	b.n	80614 <print+0x110>
			++format;
   80608:	4614      	mov	r4, r2
			}
		}
		else {
		out:
			printchar (out, *format);
   8060a:	7821      	ldrb	r1, [r4, #0]
   8060c:	4630      	mov	r0, r6
   8060e:	4b10      	ldr	r3, [pc, #64]	; (80650 <print+0x14c>)
   80610:	4798      	blx	r3
			++pc;
   80612:	3501      	adds	r5, #1
	for (; *format != 0; ++format) {
   80614:	3401      	adds	r4, #1
   80616:	7823      	ldrb	r3, [r4, #0]
   80618:	b163      	cbz	r3, 80634 <print+0x130>
		if (*format == '%') {
   8061a:	2b25      	cmp	r3, #37	; 0x25
   8061c:	d1f5      	bne.n	8060a <print+0x106>
			++format;
   8061e:	1c62      	adds	r2, r4, #1
			if (*format == '\0') break;
   80620:	7863      	ldrb	r3, [r4, #1]
   80622:	b13b      	cbz	r3, 80634 <print+0x130>
			if (*format == '%') goto out;
   80624:	2b25      	cmp	r3, #37	; 0x25
   80626:	d0ef      	beq.n	80608 <print+0x104>
			if (*format == '-') {
   80628:	2b2d      	cmp	r3, #45	; 0x2d
   8062a:	f43f af72 	beq.w	80512 <print+0xe>
			width = pad = 0;
   8062e:	2300      	movs	r3, #0
   80630:	4614      	mov	r4, r2
   80632:	e774      	b.n	8051e <print+0x1a>
		}
	}
	if (out) **out = '\0';
   80634:	b116      	cbz	r6, 8063c <print+0x138>
   80636:	6833      	ldr	r3, [r6, #0]
   80638:	2200      	movs	r2, #0
   8063a:	701a      	strb	r2, [r3, #0]
	va_end( args );
	return pc;
}
   8063c:	4628      	mov	r0, r5
   8063e:	b009      	add	sp, #36	; 0x24
   80640:	bdf0      	pop	{r4, r5, r6, r7, pc}
   80642:	bf00      	nop
   80644:	000803d5 	.word	0x000803d5
   80648:	000808a0 	.word	0x000808a0
   8064c:	00080459 	.word	0x00080459
   80650:	000803c5 	.word	0x000803c5

00080654 <printf>:

int printf(const char *format, ...)
{
   80654:	b40f      	push	{r0, r1, r2, r3}
   80656:	b500      	push	{lr}
   80658:	b083      	sub	sp, #12
   8065a:	aa04      	add	r2, sp, #16
   8065c:	f852 1b04 	ldr.w	r1, [r2], #4
        va_list args;
        
        va_start( args, format );
   80660:	9201      	str	r2, [sp, #4]
        return print( 0, format, args );
   80662:	2000      	movs	r0, #0
   80664:	4b03      	ldr	r3, [pc, #12]	; (80674 <printf+0x20>)
   80666:	4798      	blx	r3
}
   80668:	b003      	add	sp, #12
   8066a:	f85d eb04 	ldr.w	lr, [sp], #4
   8066e:	b004      	add	sp, #16
   80670:	4770      	bx	lr
   80672:	bf00      	nop
   80674:	00080505 	.word	0x00080505

00080678 <uart_putchar>:
 * \retval Success(0) or failure(1).
 */
int uart_putchar(const uint8_t c)
{
	// Check if the transmitter is ready
	if((UART->UART_SR & UART_SR_TXRDY) != UART_SR_TXRDY)
   80678:	4b07      	ldr	r3, [pc, #28]	; (80698 <uart_putchar+0x20>)
   8067a:	695b      	ldr	r3, [r3, #20]
   8067c:	f013 0f02 	tst.w	r3, #2
   80680:	d008      	beq.n	80694 <uart_putchar+0x1c>
	return 1;

	// Send the character
	UART->UART_THR = c;
   80682:	4b05      	ldr	r3, [pc, #20]	; (80698 <uart_putchar+0x20>)
   80684:	61d8      	str	r0, [r3, #28]
	while(!((UART->UART_SR) & UART_SR_TXEMPTY)); // Wait for the character to be sent, can implement ring buffer to remove the wait
   80686:	4b04      	ldr	r3, [pc, #16]	; (80698 <uart_putchar+0x20>)
   80688:	695b      	ldr	r3, [r3, #20]
   8068a:	f413 7f00 	tst.w	r3, #512	; 0x200
   8068e:	d0fa      	beq.n	80686 <uart_putchar+0xe>
	return 0;
   80690:	2000      	movs	r0, #0
   80692:	4770      	bx	lr
	return 1;
   80694:	2001      	movs	r0, #1
}
   80696:	4770      	bx	lr
   80698:	400e0800 	.word	0x400e0800

0008069c <UART_Handler>:

void UART_Handler(void)
{
   8069c:	b508      	push	{r3, lr}
	uint32_t status = UART->UART_SR;
   8069e:	4b15      	ldr	r3, [pc, #84]	; (806f4 <UART_Handler+0x58>)
   806a0:	695b      	ldr	r3, [r3, #20]
	
	//Reset UART at overflow error and frame error
	if(status & (UART_SR_OVRE | UART_SR_FRAME | UART_SR_PARE))
   806a2:	f013 0fe0 	tst.w	r3, #224	; 0xe0
   806a6:	d003      	beq.n	806b0 <UART_Handler+0x14>
	{
		UART->UART_CR = UART_CR_RXEN | UART_CR_TXEN | UART_CR_RSTSTA;
   806a8:	f44f 71a8 	mov.w	r1, #336	; 0x150
   806ac:	4a11      	ldr	r2, [pc, #68]	; (806f4 <UART_Handler+0x58>)
   806ae:	6011      	str	r1, [r2, #0]
	}
	
	//Check if message is ready to be received
	if(status & UART_SR_RXRDY)
   806b0:	f013 0f01 	tst.w	r3, #1
   806b4:	d012      	beq.n	806dc <UART_Handler+0x40>
	{
		//Check if receive ring buffer is full and 
		if((rx_buffer.tail + 1) % UART_RINGBUFFER_SIZE == rx_buffer.head)
   806b6:	4810      	ldr	r0, [pc, #64]	; (806f8 <UART_Handler+0x5c>)
   806b8:	7842      	ldrb	r2, [r0, #1]
   806ba:	1c53      	adds	r3, r2, #1
   806bc:	4259      	negs	r1, r3
   806be:	f003 033f 	and.w	r3, r3, #63	; 0x3f
   806c2:	f001 013f 	and.w	r1, r1, #63	; 0x3f
   806c6:	bf58      	it	pl
   806c8:	424b      	negpl	r3, r1
   806ca:	7801      	ldrb	r1, [r0, #0]
   806cc:	428b      	cmp	r3, r1
   806ce:	d006      	beq.n	806de <UART_Handler+0x42>
		{
			printf("ERR: UART RX buffer is full\n\r");
			rx_buffer.data[rx_buffer.tail] = UART->UART_RHR; //Throw away message
			return;
		}
		rx_buffer.data[rx_buffer.tail] = UART->UART_RHR;
   806d0:	4908      	ldr	r1, [pc, #32]	; (806f4 <UART_Handler+0x58>)
   806d2:	6988      	ldr	r0, [r1, #24]
   806d4:	4908      	ldr	r1, [pc, #32]	; (806f8 <UART_Handler+0x5c>)
   806d6:	440a      	add	r2, r1
   806d8:	7090      	strb	r0, [r2, #2]
		rx_buffer.tail = (rx_buffer.tail + 1) % UART_RINGBUFFER_SIZE;
   806da:	704b      	strb	r3, [r1, #1]
   806dc:	bd08      	pop	{r3, pc}
			printf("ERR: UART RX buffer is full\n\r");
   806de:	4807      	ldr	r0, [pc, #28]	; (806fc <UART_Handler+0x60>)
   806e0:	4b07      	ldr	r3, [pc, #28]	; (80700 <UART_Handler+0x64>)
   806e2:	4798      	blx	r3
			rx_buffer.data[rx_buffer.tail] = UART->UART_RHR; //Throw away message
   806e4:	4b04      	ldr	r3, [pc, #16]	; (806f8 <UART_Handler+0x5c>)
   806e6:	7859      	ldrb	r1, [r3, #1]
   806e8:	4a02      	ldr	r2, [pc, #8]	; (806f4 <UART_Handler+0x58>)
   806ea:	6992      	ldr	r2, [r2, #24]
   806ec:	440b      	add	r3, r1
   806ee:	709a      	strb	r2, [r3, #2]
			return;
   806f0:	bd08      	pop	{r3, pc}
   806f2:	bf00      	nop
   806f4:	400e0800 	.word	0x400e0800
   806f8:	20000450 	.word	0x20000450
   806fc:	000808a8 	.word	0x000808a8
   80700:	00080655 	.word	0x00080655

00080704 <__libc_init_array>:
   80704:	b570      	push	{r4, r5, r6, lr}
   80706:	4e0f      	ldr	r6, [pc, #60]	; (80744 <__libc_init_array+0x40>)
   80708:	4d0f      	ldr	r5, [pc, #60]	; (80748 <__libc_init_array+0x44>)
   8070a:	1b76      	subs	r6, r6, r5
   8070c:	10b6      	asrs	r6, r6, #2
   8070e:	bf18      	it	ne
   80710:	2400      	movne	r4, #0
   80712:	d005      	beq.n	80720 <__libc_init_array+0x1c>
   80714:	3401      	adds	r4, #1
   80716:	f855 3b04 	ldr.w	r3, [r5], #4
   8071a:	4798      	blx	r3
   8071c:	42a6      	cmp	r6, r4
   8071e:	d1f9      	bne.n	80714 <__libc_init_array+0x10>
   80720:	4e0a      	ldr	r6, [pc, #40]	; (8074c <__libc_init_array+0x48>)
   80722:	4d0b      	ldr	r5, [pc, #44]	; (80750 <__libc_init_array+0x4c>)
   80724:	f000 f8d2 	bl	808cc <_init>
   80728:	1b76      	subs	r6, r6, r5
   8072a:	10b6      	asrs	r6, r6, #2
   8072c:	bf18      	it	ne
   8072e:	2400      	movne	r4, #0
   80730:	d006      	beq.n	80740 <__libc_init_array+0x3c>
   80732:	3401      	adds	r4, #1
   80734:	f855 3b04 	ldr.w	r3, [r5], #4
   80738:	4798      	blx	r3
   8073a:	42a6      	cmp	r6, r4
   8073c:	d1f9      	bne.n	80732 <__libc_init_array+0x2e>
   8073e:	bd70      	pop	{r4, r5, r6, pc}
   80740:	bd70      	pop	{r4, r5, r6, pc}
   80742:	bf00      	nop
   80744:	000808d8 	.word	0x000808d8
   80748:	000808d8 	.word	0x000808d8
   8074c:	000808e0 	.word	0x000808e0
   80750:	000808d8 	.word	0x000808d8

00080754 <register_fini>:
   80754:	4b02      	ldr	r3, [pc, #8]	; (80760 <register_fini+0xc>)
   80756:	b113      	cbz	r3, 8075e <register_fini+0xa>
   80758:	4802      	ldr	r0, [pc, #8]	; (80764 <register_fini+0x10>)
   8075a:	f000 b805 	b.w	80768 <atexit>
   8075e:	4770      	bx	lr
   80760:	00000000 	.word	0x00000000
   80764:	00080775 	.word	0x00080775

00080768 <atexit>:
   80768:	2300      	movs	r3, #0
   8076a:	4601      	mov	r1, r0
   8076c:	461a      	mov	r2, r3
   8076e:	4618      	mov	r0, r3
   80770:	f000 b81e 	b.w	807b0 <__register_exitproc>

00080774 <__libc_fini_array>:
   80774:	b538      	push	{r3, r4, r5, lr}
   80776:	4c0a      	ldr	r4, [pc, #40]	; (807a0 <__libc_fini_array+0x2c>)
   80778:	4d0a      	ldr	r5, [pc, #40]	; (807a4 <__libc_fini_array+0x30>)
   8077a:	1b64      	subs	r4, r4, r5
   8077c:	10a4      	asrs	r4, r4, #2
   8077e:	d00a      	beq.n	80796 <__libc_fini_array+0x22>
   80780:	f104 4380 	add.w	r3, r4, #1073741824	; 0x40000000
   80784:	3b01      	subs	r3, #1
   80786:	eb05 0583 	add.w	r5, r5, r3, lsl #2
   8078a:	3c01      	subs	r4, #1
   8078c:	f855 3904 	ldr.w	r3, [r5], #-4
   80790:	4798      	blx	r3
   80792:	2c00      	cmp	r4, #0
   80794:	d1f9      	bne.n	8078a <__libc_fini_array+0x16>
   80796:	e8bd 4038 	ldmia.w	sp!, {r3, r4, r5, lr}
   8079a:	f000 b8a1 	b.w	808e0 <_fini>
   8079e:	bf00      	nop
   807a0:	000808f0 	.word	0x000808f0
   807a4:	000808ec 	.word	0x000808ec

000807a8 <__retarget_lock_acquire_recursive>:
   807a8:	4770      	bx	lr
   807aa:	bf00      	nop

000807ac <__retarget_lock_release_recursive>:
   807ac:	4770      	bx	lr
   807ae:	bf00      	nop

000807b0 <__register_exitproc>:
   807b0:	e92d 43f8 	stmdb	sp!, {r3, r4, r5, r6, r7, r8, r9, lr}
   807b4:	4d2c      	ldr	r5, [pc, #176]	; (80868 <__register_exitproc+0xb8>)
   807b6:	4606      	mov	r6, r0
   807b8:	6828      	ldr	r0, [r5, #0]
   807ba:	4698      	mov	r8, r3
   807bc:	460f      	mov	r7, r1
   807be:	4691      	mov	r9, r2
   807c0:	f7ff fff2 	bl	807a8 <__retarget_lock_acquire_recursive>
   807c4:	4b29      	ldr	r3, [pc, #164]	; (8086c <__register_exitproc+0xbc>)
   807c6:	681c      	ldr	r4, [r3, #0]
   807c8:	f8d4 3148 	ldr.w	r3, [r4, #328]	; 0x148
   807cc:	2b00      	cmp	r3, #0
   807ce:	d03e      	beq.n	8084e <__register_exitproc+0x9e>
   807d0:	685a      	ldr	r2, [r3, #4]
   807d2:	2a1f      	cmp	r2, #31
   807d4:	dc1c      	bgt.n	80810 <__register_exitproc+0x60>
   807d6:	f102 0e01 	add.w	lr, r2, #1
   807da:	b176      	cbz	r6, 807fa <__register_exitproc+0x4a>
   807dc:	2101      	movs	r1, #1
   807de:	eb03 0482 	add.w	r4, r3, r2, lsl #2
   807e2:	f8c4 9088 	str.w	r9, [r4, #136]	; 0x88
   807e6:	f8d3 0188 	ldr.w	r0, [r3, #392]	; 0x188
   807ea:	4091      	lsls	r1, r2
   807ec:	4308      	orrs	r0, r1
   807ee:	2e02      	cmp	r6, #2
   807f0:	f8c3 0188 	str.w	r0, [r3, #392]	; 0x188
   807f4:	f8c4 8108 	str.w	r8, [r4, #264]	; 0x108
   807f8:	d023      	beq.n	80842 <__register_exitproc+0x92>
   807fa:	3202      	adds	r2, #2
   807fc:	f8c3 e004 	str.w	lr, [r3, #4]
   80800:	6828      	ldr	r0, [r5, #0]
   80802:	f843 7022 	str.w	r7, [r3, r2, lsl #2]
   80806:	f7ff ffd1 	bl	807ac <__retarget_lock_release_recursive>
   8080a:	2000      	movs	r0, #0
   8080c:	e8bd 83f8 	ldmia.w	sp!, {r3, r4, r5, r6, r7, r8, r9, pc}
   80810:	4b17      	ldr	r3, [pc, #92]	; (80870 <__register_exitproc+0xc0>)
   80812:	b30b      	cbz	r3, 80858 <__register_exitproc+0xa8>
   80814:	f44f 70c8 	mov.w	r0, #400	; 0x190
   80818:	f3af 8000 	nop.w
   8081c:	4603      	mov	r3, r0
   8081e:	b1d8      	cbz	r0, 80858 <__register_exitproc+0xa8>
   80820:	2000      	movs	r0, #0
   80822:	f8d4 1148 	ldr.w	r1, [r4, #328]	; 0x148
   80826:	f04f 0e01 	mov.w	lr, #1
   8082a:	6058      	str	r0, [r3, #4]
   8082c:	6019      	str	r1, [r3, #0]
   8082e:	4602      	mov	r2, r0
   80830:	f8c4 3148 	str.w	r3, [r4, #328]	; 0x148
   80834:	f8c3 0188 	str.w	r0, [r3, #392]	; 0x188
   80838:	f8c3 018c 	str.w	r0, [r3, #396]	; 0x18c
   8083c:	2e00      	cmp	r6, #0
   8083e:	d0dc      	beq.n	807fa <__register_exitproc+0x4a>
   80840:	e7cc      	b.n	807dc <__register_exitproc+0x2c>
   80842:	f8d3 018c 	ldr.w	r0, [r3, #396]	; 0x18c
   80846:	4301      	orrs	r1, r0
   80848:	f8c3 118c 	str.w	r1, [r3, #396]	; 0x18c
   8084c:	e7d5      	b.n	807fa <__register_exitproc+0x4a>
   8084e:	f504 73a6 	add.w	r3, r4, #332	; 0x14c
   80852:	f8c4 3148 	str.w	r3, [r4, #328]	; 0x148
   80856:	e7bb      	b.n	807d0 <__register_exitproc+0x20>
   80858:	6828      	ldr	r0, [r5, #0]
   8085a:	f7ff ffa7 	bl	807ac <__retarget_lock_release_recursive>
   8085e:	f04f 30ff 	mov.w	r0, #4294967295
   80862:	e8bd 83f8 	ldmia.w	sp!, {r3, r4, r5, r6, r7, r8, r9, pc}
   80866:	bf00      	nop
   80868:	20000430 	.word	0x20000430
   8086c:	000808c8 	.word	0x000808c8
   80870:	00000000 	.word	0x00000000
   80874:	304e4143 	.word	0x304e4143
   80878:	73656d20 	.word	0x73656d20
   8087c:	65676173 	.word	0x65676173
   80880:	72726120 	.word	0x72726120
   80884:	64657669 	.word	0x64657669
   80888:	206e6920 	.word	0x206e6920
   8088c:	2d6e6f6e 	.word	0x2d6e6f6e
   80890:	64657375 	.word	0x64657375
   80894:	69616d20 	.word	0x69616d20
   80898:	786f626c 	.word	0x786f626c
   8089c:	00000d0a 	.word	0x00000d0a
   808a0:	6c756e28 	.word	0x6c756e28
   808a4:	0000296c 	.word	0x0000296c
   808a8:	3a525245 	.word	0x3a525245
   808ac:	52415520 	.word	0x52415520
   808b0:	58522054 	.word	0x58522054
   808b4:	66756220 	.word	0x66756220
   808b8:	20726566 	.word	0x20726566
   808bc:	66207369 	.word	0x66207369
   808c0:	0a6c6c75 	.word	0x0a6c6c75
   808c4:	0000000d 	.word	0x0000000d

000808c8 <_global_impure_ptr>:
   808c8:	20000008                                ... 

000808cc <_init>:
   808cc:	b5f8      	push	{r3, r4, r5, r6, r7, lr}
   808ce:	bf00      	nop
   808d0:	bcf8      	pop	{r3, r4, r5, r6, r7}
   808d2:	bc08      	pop	{r3}
   808d4:	469e      	mov	lr, r3
   808d6:	4770      	bx	lr

000808d8 <__init_array_start>:
   808d8:	00080755 	.word	0x00080755

000808dc <__frame_dummy_init_array_entry>:
   808dc:	00080119                                ....

000808e0 <_fini>:
   808e0:	b5f8      	push	{r3, r4, r5, r6, r7, lr}
   808e2:	bf00      	nop
   808e4:	bcf8      	pop	{r3, r4, r5, r6, r7}
   808e6:	bc08      	pop	{r3}
   808e8:	469e      	mov	lr, r3
   808ea:	4770      	bx	lr

000808ec <__fini_array_start>:
   808ec:	000800f5 	.word	0x000800f5
